target datalayout = "e-m:e-p270:32:32-p271:32:32-p272:64:64-i64:64-i128:128-f80:128-n8:16:32:64-S128"
target triple = "x86_64-pc-linux-gnu"

%struct.AVCodecContext = type { ptr, i32, i32, ptr, i32, i32, ptr, ptr, ptr, i64, i32, i32, ptr, i32, %struct.AVRational, %struct.AVRational, %struct.AVRational, i32, i32, i32, i32, i32, %struct.AVRational, i32, i32, i32, i32, i32, i32, i32, i32, i32, i32, i32, ptr, ptr, i32, float, float, float, float, float, float, float, float, float, i32, i32, i32, i32, i32, i32, i32, i32, i32, i32, i32, i32, ptr, ptr, ptr, i32, i32, i32, i32, i32, i32, i32, i32, i32, i32, %struct.AVChannelLayout, i32, i32, i32, i32, i32, i32, i32, i32, ptr, i32, i32, i32, float, float, i32, i32, i32, i32, i32, ptr, i64, i64, float, float, i32, i32, ptr, ptr, i32, i32, i32, i32, i32, ptr, ptr, ptr, ptr, i32, i32, [8 x i64], i32, i32, i32, i32, i32, i32, i32, ptr, ptr, i32, i32, i32, i32, i32, i32, i32, i32, i32, i32, ptr, ptr, i32, i32, ptr, ptr, ptr, ptr, i32, i32, i64, i32, i32, i64, ptr, i64, ptr, i32, ptr, i32 }
%struct.AVRational = type { i32, i32 }
%struct.AVChannelLayout = type { i32, i32, %union.anon.0, ptr }
%union.anon.0 = type { i64 }
%struct.TAKDecContext = type { ptr, %struct.AudioDSPContext, %struct.TAKDSPContext, %struct.TAKStreamInfo, %struct.BitstreamContextLE, i32, i32, ptr, i32, [16 x ptr], [16 x i8], [16 x i8], [256 x i16], i32, [8 x i16], i32, i8, [16 x %struct.MCDParam], [128 x i8], [15 x i8], [256 x i16], [544 x i16] }
%struct.AudioDSPContext = type { ptr, ptr, ptr }
%struct.TAKDSPContext = type { ptr, ptr, ptr, ptr }
%struct.TAKStreamInfo = type { i32, i32, i32, i32, i32, i32, i32, i32, i32, i64, i64 }
%struct.BitstreamContextLE = type { i64, ptr, ptr, ptr, i32, i32 }
%struct.MCDParam = type { i8, i8, i8, i8 }

; Function Attrs: nounwind uwtable
define internal void @set_sample_rate_params(ptr noundef %0) #0 {
  %2 = alloca ptr, align 8
  %3 = alloca ptr, align 8
  %4 = alloca i32, align 4
  store ptr %0, ptr %2, align 8, !tbaa !4
  call void @llvm.lifetime.start.p0(i64 8, ptr %3) #9
  %5 = load ptr, ptr %2, align 8, !tbaa !4
  %6 = getelementptr inbounds nuw %struct.AVCodecContext, ptr %5, i32 0, i32 6
  %7 = load ptr, ptr %6, align 8, !tbaa !9
  store ptr %7, ptr %3, align 8, !tbaa !29
  call void @llvm.lifetime.start.p0(i64 4, ptr %4) #9
  %8 = load ptr, ptr %2, align 8, !tbaa !4
  %9 = getelementptr inbounds nuw %struct.AVCodecContext, ptr %8, i32 0, i32 69
  %10 = load i32, ptr %9, align 8, !tbaa !57
  %11 = icmp slt i32 %10, 11025
  br i1 %11, label %12, label %13

12:                                               ; preds = %1
  store i32 3, ptr %4, align 4, !tbaa !49
  br label %28

13:                                               ; preds = %1
  %14 = load ptr, ptr %2, align 8, !tbaa !4
  %15 = getelementptr inbounds nuw %struct.AVCodecContext, ptr %14, i32 0, i32 69
  %16 = load i32, ptr %15, align 8, !tbaa !57
  %17 = icmp slt i32 %16, 22050
  br i1 %17, label %18, label %19

18:                                               ; preds = %13
  store i32 2, ptr %4, align 4, !tbaa !49
  br label %27

19:                                               ; preds = %13
  %20 = load ptr, ptr %2, align 8, !tbaa !4
  %21 = getelementptr inbounds nuw %struct.AVCodecContext, ptr %20, i32 0, i32 69
  %22 = load i32, ptr %21, align 8, !tbaa !57
  %23 = icmp slt i32 %22, 44100
  br i1 %23, label %24, label %25

24:                                               ; preds = %19
  store i32 1, ptr %4, align 4, !tbaa !49
  br label %26

25:                                               ; preds = %19
  store i32 0, ptr %4, align 4, !tbaa !49
  br label %26

26:                                               ; preds = %25, %24
  br label %27

27:                                               ; preds = %26, %18
  br label %28

28:                                               ; preds = %27, %12
  %29 = load ptr, ptr %2, align 8, !tbaa !4
  %30 = getelementptr inbounds nuw %struct.AVCodecContext, ptr %29, i32 0, i32 69
  %31 = load i32, ptr %30, align 8, !tbaa !57
  %32 = sext i32 %31 to i64
  %33 = add nsw i64 %32, 511
  %34 = ashr i64 %33, 9
  %35 = add nsw i64 %34, 4
  %36 = sub nsw i64 %35, 1
  %37 = and i64 %36, -4
  %38 = load i32, ptr %4, align 4, !tbaa !49
  %39 = zext i32 %38 to i64
  %40 = shl i64 %37, %39
  %41 = trunc i64 %40 to i32
  %42 = load ptr, ptr %3, align 8, !tbaa !29
  %43 = getelementptr inbounds nuw %struct.TAKDecContext, ptr %42, i32 0, i32 5
  store i32 %41, ptr %43, align 16, !tbaa !99
  %44 = load ptr, ptr %2, align 8, !tbaa !4
  %45 = getelementptr inbounds nuw %struct.AVCodecContext, ptr %44, i32 0, i32 69
  %46 = load i32, ptr %45, align 8, !tbaa !57
  %47 = sext i32 %46 to i64
  %48 = add nsw i64 %47, 511
  %49 = ashr i64 %48, 9
  %50 = add nsw i64 %49, 4
  %51 = sub nsw i64 %50, 1
  %52 = and i64 %51, -4
  %53 = shl i64 %52, 1
  %54 = trunc i64 %53 to i32
  %55 = load ptr, ptr %3, align 8, !tbaa !29
  %56 = getelementptr inbounds nuw %struct.TAKDecContext, ptr %55, i32 0, i32 15
  store i32 %54, ptr %56, align 4, !tbaa !100
  call void @llvm.lifetime.end.p0(i64 4, ptr %4) #9
  call void @llvm.lifetime.end.p0(i64 8, ptr %3) #9
  ret void
}

; Function Attrs: cold nounwind optsize uwtable
define internal i32 @tak_decode_init(ptr noundef %0) #1 {
  %2 = alloca ptr, align 8
  %3 = alloca ptr, align 8
  store ptr %0, ptr %2, align 8, !tbaa !4
  call void @llvm.lifetime.start.p0(i64 8, ptr %3) #9
  %4 = load ptr, ptr %2, align 8, !tbaa !4
  %5 = getelementptr inbounds nuw %struct.AVCodecContext, ptr %4, i32 0, i32 6
  %6 = load ptr, ptr %5, align 8, !tbaa !9
  store ptr %6, ptr %3, align 8, !tbaa !29
  %7 = load ptr, ptr %3, align 8, !tbaa !29
  %8 = getelementptr inbounds nuw %struct.TAKDecContext, ptr %7, i32 0, i32 1
  call void @ff_audiodsp_init(ptr noundef %8)
  %9 = load ptr, ptr %3, align 8, !tbaa !29
  %10 = getelementptr inbounds nuw %struct.TAKDecContext, ptr %9, i32 0, i32 2
  call void @ff_takdsp_init(ptr noundef %10)
  %11 = load ptr, ptr %2, align 8, !tbaa !4
  %12 = load ptr, ptr %3, align 8, !tbaa !29
  %13 = getelementptr inbounds nuw %struct.TAKDecContext, ptr %12, i32 0, i32 0
  store ptr %11, ptr %13, align 16, !tbaa !31
  %14 = load ptr, ptr %2, align 8, !tbaa !4
  %15 = getelementptr inbounds nuw %struct.AVCodecContext, ptr %14, i32 0, i32 114
  %16 = load i32, ptr %15, align 8, !tbaa !37
  %17 = load ptr, ptr %2, align 8, !tbaa !4
  %18 = getelementptr inbounds nuw %struct.AVCodecContext, ptr %17, i32 0, i32 115
  store i32 %16, ptr %18, align 4, !tbaa !38
  %19 = load ptr, ptr %2, align 8, !tbaa !4
  call void @set_sample_rate_params(ptr noundef %19)
  %20 = load ptr, ptr %2, align 8, !tbaa !4
  %21 = call i32 @set_bps_params(ptr noundef %20)
  call void @llvm.lifetime.end.p0(i64 8, ptr %3) #9
  ret i32 %21
}