; Function Attrs: cold nounwind optsize uwtable
define internal range(i32 -1094995529, 1) i32 @tak_decode_init(ptr noundef %0) #1 {
  %2 = getelementptr inbounds nuw i8, ptr %0, i64 32
  %3 = load ptr, ptr %2, align 8, !tbaa !4
  %4 = getelementptr inbounds nuw i8, ptr %3, i64 8
  tail call void @ff_audiodsp_init(ptr noundef nonnull %4) #12
  %5 = getelementptr inbounds nuw i8, ptr %3, i64 32
  tail call void @ff_takdsp_init(ptr noundef nonnull %5) #12
  store ptr %0, ptr %3, align 16, !tbaa !27
  %6 = getelementptr inbounds nuw i8, ptr %0, i64 648
  %7 = load i32, ptr %6, align 8, !tbaa !34
  %8 = getelementptr inbounds nuw i8, ptr %0, i64 652
  store i32 %7, ptr %8, align 4, !tbaa !35
  %.val = load ptr, ptr %2, align 8, !tbaa !4
  %9 = getelementptr i8, ptr %0, i64 344
  %.val9 = load i32, ptr %9, align 8, !tbaa !36
  %10 = icmp slt i32 %.val9, 11025
  br i1 %10, label %set_sample_rate_params.exit, label %11

11:                                               ; preds = %1
  %12 = icmp samesign ult i32 %.val9, 22050
  br i1 %12, label %set_sample_rate_params.exit, label %13

13:                                               ; preds = %11
  %14 = icmp samesign ult i32 %.val9, 44100
  %..i = zext i1 %14 to i64
  br label %set_sample_rate_params.exit

set_sample_rate_params.exit:                      ; preds = %1, %11, %13
  %.0.i = phi i64 [ 3, %1 ], [ 2, %11 ], [ %..i, %13 ]
  %15 = sext i32 %.val9 to i64
  %16 = add nsw i64 %15, 511
  %17 = lshr i64 %16, 9
  %18 = add nuw nsw i64 %17, 3
  %19 = and i64 %18, 4294967292
  %20 = shl nuw nsw i64 %19, %.0.i
  %21 = trunc i64 %20 to i32
  %22 = getelementptr inbounds nuw i8, ptr %.val, i64 160
  store i32 %21, ptr %22, align 16, !tbaa !37
  %23 = lshr i64 %16, 8
  %24 = trunc i64 %23 to i32
  %25 = add i32 %24, 6
  %26 = and i32 %25, -8
  %27 = getelementptr inbounds nuw i8, ptr %.val, i64 876
  store i32 %26, ptr %27, align 4, !tbaa !38
  %28 = tail call fastcc i32 @set_bps_params(ptr noundef nonnull %0)
  ret i32 %28
}